; Function Attrs: mustprogress nounwind uwtable
define dso_local noundef zeroext i1 @_ZN4llvm20TLSVariableHoistPass7runImplERNS_8FunctionERNS_13DominatorTreeERNS_8LoopInfoE(ptr noundef nonnull align 8 dereferenceable(56) %0, ptr noundef nonnull align 8 dereferenceable(136) %1, ptr noundef nonnull align 8 dereferenceable(124) %2, ptr noundef nonnull align 8 dereferenceable(144) %3) local_unnamed_addr #0 align 2 {
  %5 = alloca %"class.llvm::AttributeList", align 8
  %6 = tail call noundef zeroext i1 @_ZNK4llvm8Function14hasFnAttributeENS_9Attribute8AttrKindE(ptr noundef nonnull align 8 dereferenceable(136) %1, i32 noundef 46) #17
  br i1 %6, label %_ZN4llvm20TLSVariableHoistPass23tryReplaceTLSCandidatesERNS_8FunctionE.exit, label %7

7:                                                ; preds = %4
  %8 = load i8, ptr getelementptr inbounds nuw (i8, ptr @_ZL12TLSLoadHoist, i64 128), align 8
  %9 = trunc i8 %8 to i1
  br i1 %9, label %.critedge, label %10

10:                                               ; preds = %7
  %11 = getelementptr inbounds nuw i8, ptr %1, i64 120
  %.sroa.0.0.copyload.i = load ptr, ptr %11, align 8
  store ptr %.sroa.0.0.copyload.i, ptr %5, align 8
  %12 = call noundef zeroext i1 @_ZNK4llvm13AttributeList9hasFnAttrENS_9StringRefE(ptr noundef nonnull align 8 dereferenceable(8) %5, ptr nonnull @.str, i64 14) #17
  br i1 %12, label %.critedge, label %_ZN4llvm20TLSVariableHoistPass23tryReplaceTLSCandidatesERNS_8FunctionE.exit

.critedge:                                        ; preds = %7, %10
  %13 = getelementptr inbounds nuw i8, ptr %0, i64 8
  store ptr %3, ptr %13, align 8
  store ptr %2, ptr %0, align 8
  call void @_ZN4llvm20TLSVariableHoistPass20collectTLSCandidatesERNS_8FunctionE(ptr noundef nonnull align 8 dereferenceable(56) %0, ptr noundef nonnull align 8 dereferenceable(136) %1)
  %14 = getelementptr inbounds nuw i8, ptr %0, i64 40
  %15 = call noundef zeroext i1 @_ZNK4llvm15SmallVectorBaseIjE5emptyEv(ptr noundef nonnull align 8 dereferenceable(16) %14) #17
  br i1 %15, label %_ZN4llvm20TLSVariableHoistPass23tryReplaceTLSCandidatesERNS_8FunctionE.exit, label %16

16:                                               ; preds = %.critedge
  %17 = load ptr, ptr %14, align 8
  %18 = call noundef i64 @_ZNK4llvm15SmallVectorBaseIjE4sizeEv(ptr noundef nonnull align 8 dereferenceable(16) %14) #17
  %19 = getelementptr inbounds %"struct.std::pair", ptr %17, i64 %18
  %.not14.i = icmp eq i64 %18, 0
  br i1 %.not14.i, label %_ZN4llvm20TLSVariableHoistPass23tryReplaceTLSCandidatesERNS_8FunctionE.exit, label %.lr.ph.i

.lr.ph.i:                                         ; preds = %16, %.lr.ph.i
  %.01216.i = phi i1 [ %22, %.lr.ph.i ], [ false, %16 ]
  %.01315.i = phi ptr [ %23, %.lr.ph.i ], [ %17, %16 ]
  %20 = load ptr, ptr %.01315.i, align 8
  %21 = call noundef zeroext i1 @_ZN4llvm20TLSVariableHoistPass22tryReplaceTLSCandidateERNS_8FunctionEPNS_14GlobalVariableE(ptr noundef nonnull align 8 dereferenceable(56) %0, ptr noundef nonnull readonly align 8 dereferenceable(136) %1, ptr noundef %20)
  %22 = or i1 %.01216.i, %21
  %23 = getelementptr inbounds nuw i8, ptr %.01315.i, i64 152
  %.not.i = icmp eq ptr %23, %19
  br i1 %.not.i, label %_ZN4llvm20TLSVariableHoistPass23tryReplaceTLSCandidatesERNS_8FunctionE.exit, label %.lr.ph.i

_ZN4llvm20TLSVariableHoistPass23tryReplaceTLSCandidatesERNS_8FunctionE.exit: ; preds = %.lr.ph.i, %16, %.critedge, %10, %4
  %.0 = phi i1 [ false, %4 ], [ false, %10 ], [ false, %.critedge ], [ false, %16 ], [ %22, %.lr.ph.i ]
  ret i1 %.0
}